target datalayout = "e-m:e-p270:32:32-p271:32:32-p272:64:64-i64:64-i128:128-f80:128-n8:16:32:64-S128"
target triple = "x86_64-unknown-linux-gnu"

%"class.icu_75::UObject" = type { ptr }
%"class.icu_75::RuleChain" = type { ptr, %"class.icu_75::UnicodeString", ptr, ptr, %"class.icu_75::UnicodeString", %"class.icu_75::UnicodeString", i8, i8, i32 }
%"class.icu_75::UnicodeString" = type { %"class.icu_75::Replaceable", %"union.icu_75::UnicodeString::StackBufferOrFields" }
%"class.icu_75::Replaceable" = type { %"class.icu_75::UObject" }
%"union.icu_75::UnicodeString::StackBufferOrFields" = type { %struct.anon.0, [32 x i8] }
%struct.anon.0 = type { i16, i32, i32, ptr }
%"class.icu_75::OrConstraint" = type <{ ptr, ptr, ptr, i32, [4 x i8] }>

@_ZTVN6icu_759RuleChainE = unnamed_addr constant { [4 x ptr] } { [4 x ptr] [ptr null, ptr @_ZTIN6icu_759RuleChainE, ptr @_ZN6icu_759RuleChainD1Ev, ptr @_ZN6icu_759RuleChainD0Ev] }, align 8
@_ZN6icu_7512OrConstraintC1ERKS0_ = unnamed_addr alias void (ptr, ptr), ptr @_ZN6icu_7512OrConstraintC2ERKS0_
@_ZN6icu_759RuleChainC1ERKS0_ = unnamed_addr alias void (ptr, ptr), ptr @_ZN6icu_759RuleChainC2ERKS0_

; Function Attrs: mustprogress nounwind uwtable
define internal noundef signext i8 @_ZL9U_FAILURE10UErrorCode(i32 noundef %code) #0 {
entry:
  %code.addr = alloca i32, align 4
  store i32 %code, ptr %code.addr, align 4
  %0 = load i32, ptr %code.addr, align 4
  %cmp = icmp sgt i32 %0, 0
  %conv = zext i1 %cmp to i8
  ret i8 %conv
}

; Function Attrs: mustprogress uwtable
define void @_ZN6icu_759RuleChainC2ERKS0_(ptr noundef nonnull align 8 dereferenceable(224) %this, ptr noundef nonnull align 8 dereferenceable(224) %other) unnamed_addr #1 align 2 personality ptr @__gxx_personality_v0 {
entry:
  %this.addr = alloca ptr, align 8
  %other.addr = alloca ptr, align 8
  %exn.slot = alloca ptr, align 8
  %ehselector.slot = alloca i32, align 4
  %saved-rvalue = alloca ptr, align 8
  %cleanup.cond = alloca i1, align 1
  %saved-rvalue42 = alloca ptr, align 8
  %cleanup.cond43 = alloca i1, align 1
  store ptr %this, ptr %this.addr, align 8
  store ptr %other, ptr %other.addr, align 8
  %this1 = load ptr, ptr %this.addr, align 8
  store ptr getelementptr inbounds ({ [4 x ptr] }, ptr @_ZTVN6icu_759RuleChainE, i32 0, i32 0, i32 2), ptr %this1, align 8
  %fKeyword = getelementptr inbounds %"class.icu_75::RuleChain", ptr %this1, i32 0, i32 1
  %0 = load ptr, ptr %other.addr, align 8
  %fKeyword2 = getelementptr inbounds %"class.icu_75::RuleChain", ptr %0, i32 0, i32 1
  call void @_ZN6icu_7513UnicodeStringC1ERKS0_(ptr noundef nonnull align 8 dereferenceable(64) %fKeyword, ptr noundef nonnull align 8 dereferenceable(64) %fKeyword2)
  %fNext = getelementptr inbounds %"class.icu_75::RuleChain", ptr %this1, i32 0, i32 2
  store ptr null, ptr %fNext, align 8
  %ruleHeader = getelementptr inbounds %"class.icu_75::RuleChain", ptr %this1, i32 0, i32 3
  store ptr null, ptr %ruleHeader, align 8
  %fDecimalSamples = getelementptr inbounds %"class.icu_75::RuleChain", ptr %this1, i32 0, i32 4
  %1 = load ptr, ptr %other.addr, align 8
  %fDecimalSamples3 = getelementptr inbounds %"class.icu_75::RuleChain", ptr %1, i32 0, i32 4
  invoke void @_ZN6icu_7513UnicodeStringC1ERKS0_(ptr noundef nonnull align 8 dereferenceable(64) %fDecimalSamples, ptr noundef nonnull align 8 dereferenceable(64) %fDecimalSamples3)
          to label %invoke.cont unwind label %lpad

invoke.cont:                                      ; preds = %entry
  %fIntegerSamples = getelementptr inbounds %"class.icu_75::RuleChain", ptr %this1, i32 0, i32 5
  %2 = load ptr, ptr %other.addr, align 8
  %fIntegerSamples4 = getelementptr inbounds %"class.icu_75::RuleChain", ptr %2, i32 0, i32 5
  invoke void @_ZN6icu_7513UnicodeStringC1ERKS0_(ptr noundef nonnull align 8 dereferenceable(64) %fIntegerSamples, ptr noundef nonnull align 8 dereferenceable(64) %fIntegerSamples4)
          to label %invoke.cont6 unwind label %lpad5

invoke.cont6:                                     ; preds = %invoke.cont
  %fDecimalSamplesUnbounded = getelementptr inbounds %"class.icu_75::RuleChain", ptr %this1, i32 0, i32 6
  %3 = load ptr, ptr %other.addr, align 8
  %fDecimalSamplesUnbounded7 = getelementptr inbounds %"class.icu_75::RuleChain", ptr %3, i32 0, i32 6
  %4 = load i8, ptr %fDecimalSamplesUnbounded7, align 8
  store i8 %4, ptr %fDecimalSamplesUnbounded, align 8
  %fIntegerSamplesUnbounded = getelementptr inbounds %"class.icu_75::RuleChain", ptr %this1, i32 0, i32 7
  %5 = load ptr, ptr %other.addr, align 8
  %fIntegerSamplesUnbounded8 = getelementptr inbounds %"class.icu_75::RuleChain", ptr %5, i32 0, i32 7
  %6 = load i8, ptr %fIntegerSamplesUnbounded8, align 1
  store i8 %6, ptr %fIntegerSamplesUnbounded, align 1
  %fInternalStatus = getelementptr inbounds %"class.icu_75::RuleChain", ptr %this1, i32 0, i32 8
  %7 = load ptr, ptr %other.addr, align 8
  %fInternalStatus9 = getelementptr inbounds %"class.icu_75::RuleChain", ptr %7, i32 0, i32 8
  %8 = load i32, ptr %fInternalStatus9, align 4
  store i32 %8, ptr %fInternalStatus, align 4
  %fInternalStatus10 = getelementptr inbounds %"class.icu_75::RuleChain", ptr %this1, i32 0, i32 8
  %9 = load i32, ptr %fInternalStatus10, align 4
  %call = invoke noundef signext i8 @_ZL9U_FAILURE10UErrorCode(i32 noundef %9)
          to label %invoke.cont12 unwind label %lpad11

invoke.cont12:                                    ; preds = %invoke.cont6
  %tobool = icmp ne i8 %call, 0
  br i1 %tobool, label %if.then, label %if.end

if.then:                                          ; preds = %invoke.cont12
  br label %if.end68

lpad:                                             ; preds = %entry
  %10 = landingpad { ptr, i32 }
          cleanup
  %11 = extractvalue { ptr, i32 } %10, 0
  store ptr %11, ptr %exn.slot, align 8
  %12 = extractvalue { ptr, i32 } %10, 1
  store i32 %12, ptr %ehselector.slot, align 4
  br label %ehcleanup70

lpad5:                                            ; preds = %invoke.cont
  %13 = landingpad { ptr, i32 }
          cleanup
  %14 = extractvalue { ptr, i32 } %13, 0
  store ptr %14, ptr %exn.slot, align 8
  %15 = extractvalue { ptr, i32 } %13, 1
  store i32 %15, ptr %ehselector.slot, align 4
  br label %ehcleanup69

lpad11:                                           ; preds = %if.else56, %if.else, %invoke.cont6
  %16 = landingpad { ptr, i32 }
          cleanup
  %17 = extractvalue { ptr, i32 } %16, 0
  store ptr %17, ptr %exn.slot, align 8
  %18 = extractvalue { ptr, i32 } %16, 1
  store i32 %18, ptr %ehselector.slot, align 4
  br label %ehcleanup

if.end:                                           ; preds = %invoke.cont12
  %19 = load ptr, ptr %other.addr, align 8
  %ruleHeader13 = getelementptr inbounds %"class.icu_75::RuleChain", ptr %19, i32 0, i32 3
  %20 = load ptr, ptr %ruleHeader13, align 8
  %cmp = icmp ne ptr %20, null
  br i1 %cmp, label %if.then14, label %if.end35

if.then14:                                        ; preds = %if.end
  %call15 = call noundef ptr @_ZN6icu_757UMemorynwEm(i64 noundef 32) #13
  %new.isnull = icmp eq ptr %call15, null
  store i1 false, ptr %cleanup.cond, align 1
  br i1 %new.isnull, label %new.cont, label %new.notnull

new.notnull:                                      ; preds = %if.then14
  store ptr %call15, ptr %saved-rvalue, align 8
  store i1 true, ptr %cleanup.cond, align 1
  %21 = load ptr, ptr %other.addr, align 8
  %ruleHeader16 = getelementptr inbounds %"class.icu_75::RuleChain", ptr %21, i32 0, i32 3
  %22 = load ptr, ptr %ruleHeader16, align 8
  invoke void @_ZN6icu_7512OrConstraintC1ERKS0_(ptr noundef nonnull align 8 dereferenceable(28) %call15, ptr noundef nonnull align 8 dereferenceable(28) %22)
          to label %invoke.cont18 unwind label %lpad17

invoke.cont18:                                    ; preds = %new.notnull
  br label %new.cont

new.cont:                                         ; preds = %invoke.cont18, %if.then14
  %23 = phi ptr [ %call15, %invoke.cont18 ], [ null, %if.then14 ]
  %ruleHeader19 = getelementptr inbounds %"class.icu_75::RuleChain", ptr %this1, i32 0, i32 3
  store ptr %23, ptr %ruleHeader19, align 8
  %ruleHeader20 = getelementptr inbounds %"class.icu_75::RuleChain", ptr %this1, i32 0, i32 3
  %24 = load ptr, ptr %ruleHeader20, align 8
  %cmp21 = icmp eq ptr %24, null
  br i1 %cmp21, label %if.then22, label %if.else

if.then22:                                        ; preds = %new.cont
  %fInternalStatus23 = getelementptr inbounds %"class.icu_75::RuleChain", ptr %this1, i32 0, i32 8
  store i32 7, ptr %fInternalStatus23, align 4
  br label %if.end34

lpad17:                                           ; preds = %new.notnull
  %25 = landingpad { ptr, i32 }
          cleanup
  %26 = extractvalue { ptr, i32 } %25, 0
  store ptr %26, ptr %exn.slot, align 8
  %27 = extractvalue { ptr, i32 } %25, 1
  store i32 %27, ptr %ehselector.slot, align 4
  %cleanup.is_active = load i1, ptr %cleanup.cond, align 1
  br i1 %cleanup.is_active, label %cleanup.action, label %cleanup.done

cleanup.action:                                   ; preds = %lpad17
  %28 = load ptr, ptr %saved-rvalue, align 8
  call void @_ZN6icu_757UMemorydlEPv(ptr noundef %28) #13
  br label %cleanup.done

cleanup.done:                                     ; preds = %cleanup.action, %lpad17
  br label %ehcleanup

if.else:                                          ; preds = %new.cont
  %ruleHeader24 = getelementptr inbounds %"class.icu_75::RuleChain", ptr %this1, i32 0, i32 3
  %29 = load ptr, ptr %ruleHeader24, align 8
  %fInternalStatus25 = getelementptr inbounds %"class.icu_75::OrConstraint", ptr %29, i32 0, i32 3
  %30 = load i32, ptr %fInternalStatus25, align 8
  %call27 = invoke noundef signext i8 @_ZL9U_FAILURE10UErrorCode(i32 noundef %30)
          to label %invoke.cont26 unwind label %lpad11

invoke.cont26:                                    ; preds = %if.else
  %tobool28 = icmp ne i8 %call27, 0
  br i1 %tobool28, label %if.then29, label %if.end33

if.then29:                                        ; preds = %invoke.cont26
  %ruleHeader30 = getelementptr inbounds %"class.icu_75::RuleChain", ptr %this1, i32 0, i32 3
  %31 = load ptr, ptr %ruleHeader30, align 8
  %fInternalStatus31 = getelementptr inbounds %"class.icu_75::OrConstraint", ptr %31, i32 0, i32 3
  %32 = load i32, ptr %fInternalStatus31, align 8
  %fInternalStatus32 = getelementptr inbounds %"class.icu_75::RuleChain", ptr %this1, i32 0, i32 8
  store i32 %32, ptr %fInternalStatus32, align 4
  br label %if.end68

if.end33:                                         ; preds = %invoke.cont26
  br label %if.end34

if.end34:                                         ; preds = %if.end33, %if.then22
  br label %if.end35

if.end35:                                         ; preds = %if.end34, %if.end
  %33 = load ptr, ptr %other.addr, align 8
  %fNext36 = getelementptr inbounds %"class.icu_75::RuleChain", ptr %33, i32 0, i32 2
  %34 = load ptr, ptr %fNext36, align 8
  %cmp37 = icmp ne ptr %34, null
  br i1 %cmp37, label %if.then38, label %if.end68

if.then38:                                        ; preds = %if.end35
  %call39 = call noundef ptr @_ZN6icu_757UMemorynwEm(i64 noundef 224) #13
  %new.isnull40 = icmp eq ptr %call39, null
  store i1 false, ptr %cleanup.cond43, align 1
  br i1 %new.isnull40, label %new.cont50, label %new.notnull41

new.notnull41:                                    ; preds = %if.then38
  store ptr %call39, ptr %saved-rvalue42, align 8
  store i1 true, ptr %cleanup.cond43, align 1
  %35 = load ptr, ptr %other.addr, align 8
  %fNext44 = getelementptr inbounds %"class.icu_75::RuleChain", ptr %35, i32 0, i32 2
  %36 = load ptr, ptr %fNext44, align 8
  invoke void @_ZN6icu_759RuleChainC1ERKS0_(ptr noundef nonnull align 8 dereferenceable(224) %call39, ptr noundef nonnull align 8 dereferenceable(224) %36)
          to label %invoke.cont46 unwind label %lpad45

invoke.cont46:                                    ; preds = %new.notnull41
  br label %new.cont50

new.cont50:                                       ; preds = %invoke.cont46, %if.then38
  %37 = phi ptr [ %call39, %invoke.cont46 ], [ null, %if.then38 ]
  %fNext51 = getelementptr inbounds %"class.icu_75::RuleChain", ptr %this1, i32 0, i32 2
  store ptr %37, ptr %fNext51, align 8
  %fNext52 = getelementptr inbounds %"class.icu_75::RuleChain", ptr %this1, i32 0, i32 2
  %38 = load ptr, ptr %fNext52, align 8
  %cmp53 = icmp eq ptr %38, null
  br i1 %cmp53, label %if.then54, label %if.else56

if.then54:                                        ; preds = %new.cont50
  %fInternalStatus55 = getelementptr inbounds %"class.icu_75::RuleChain", ptr %this1, i32 0, i32 8
  store i32 7, ptr %fInternalStatus55, align 4
  br label %if.end67

lpad45:                                           ; preds = %new.notnull41
  %39 = landingpad { ptr, i32 }
          cleanup
  %40 = extractvalue { ptr, i32 } %39, 0
  store ptr %40, ptr %exn.slot, align 8
  %41 = extractvalue { ptr, i32 } %39, 1
  store i32 %41, ptr %ehselector.slot, align 4
  %cleanup.is_active47 = load i1, ptr %cleanup.cond43, align 1
  br i1 %cleanup.is_active47, label %cleanup.action48, label %cleanup.done49

cleanup.action48:                                 ; preds = %lpad45
  %42 = load ptr, ptr %saved-rvalue42, align 8
  call void @_ZN6icu_757UMemorydlEPv(ptr noundef %42) #13
  br label %cleanup.done49

cleanup.done49:                                   ; preds = %cleanup.action48, %lpad45
  br label %ehcleanup

if.else56:                                        ; preds = %new.cont50
  %fNext57 = getelementptr inbounds %"class.icu_75::RuleChain", ptr %this1, i32 0, i32 2
  %43 = load ptr, ptr %fNext57, align 8
  %fInternalStatus58 = getelementptr inbounds %"class.icu_75::RuleChain", ptr %43, i32 0, i32 8
  %44 = load i32, ptr %fInternalStatus58, align 4
  %call60 = invoke noundef signext i8 @_ZL9U_FAILURE10UErrorCode(i32 noundef %44)
          to label %invoke.cont59 unwind label %lpad11

invoke.cont59:                                    ; preds = %if.else56
  %tobool61 = icmp ne i8 %call60, 0
  br i1 %tobool61, label %if.then62, label %if.end66

if.then62:                                        ; preds = %invoke.cont59
  %fNext63 = getelementptr inbounds %"class.icu_75::RuleChain", ptr %this1, i32 0, i32 2
  %45 = load ptr, ptr %fNext63, align 8
  %fInternalStatus64 = getelementptr inbounds %"class.icu_75::RuleChain", ptr %45, i32 0, i32 8
  %46 = load i32, ptr %fInternalStatus64, align 4
  %fInternalStatus65 = getelementptr inbounds %"class.icu_75::RuleChain", ptr %this1, i32 0, i32 8
  store i32 %46, ptr %fInternalStatus65, align 4
  br label %if.end66

if.end66:                                         ; preds = %if.then62, %invoke.cont59
  br label %if.end67

if.end67:                                         ; preds = %if.end66, %if.then54
  br label %if.end68

if.end68:                                         ; preds = %if.end67, %if.end35, %if.then29, %if.then
  ret void

ehcleanup:                                        ; preds = %cleanup.done49, %cleanup.done, %lpad11
  call void @_ZN6icu_7513UnicodeStringD1Ev(ptr noundef nonnull align 8 dereferenceable(64) %fIntegerSamples) #13
  br label %ehcleanup69

ehcleanup69:                                      ; preds = %ehcleanup, %lpad5
  call void @_ZN6icu_7513UnicodeStringD1Ev(ptr noundef nonnull align 8 dereferenceable(64) %fDecimalSamples) #13
  br label %ehcleanup70

ehcleanup70:                                      ; preds = %ehcleanup69, %lpad
  call void @_ZN6icu_7513UnicodeStringD1Ev(ptr noundef nonnull align 8 dereferenceable(64) %fKeyword) #13
  br label %eh.resume

eh.resume:                                        ; preds = %ehcleanup70
  %exn = load ptr, ptr %exn.slot, align 8
  %sel = load i32, ptr %ehselector.slot, align 4
  %lpad.val = insertvalue { ptr, i32 } poison, ptr %exn, 0
  %lpad.val71 = insertvalue { ptr, i32 } %lpad.val, i32 %sel, 1
  resume { ptr, i32 } %lpad.val71
}