; Function Attrs: mustprogress uwtable
define void @_ZN6icu_759RuleChainC2ERKS0_(ptr noundef nonnull align 8 dereferenceable(224) %this, ptr noundef nonnull align 8 dereferenceable(224) %other) unnamed_addr #1 align 2 personality ptr @__gxx_personality_v0 {
entry:
  store ptr getelementptr inbounds ({ [4 x ptr] }, ptr @_ZTVN6icu_759RuleChainE, i64 0, i32 0, i64 2), ptr %this, align 8
  %fKeyword = getelementptr inbounds i8, ptr %this, i64 8
  %fKeyword2 = getelementptr inbounds i8, ptr %other, i64 8
  tail call void @_ZN6icu_7513UnicodeStringC1ERKS0_(ptr noundef nonnull align 8 dereferenceable(64) %fKeyword, ptr noundef nonnull align 8 dereferenceable(64) %fKeyword2)
  %fNext = getelementptr inbounds i8, ptr %this, i64 72
  %ruleHeader = getelementptr inbounds i8, ptr %this, i64 80
  %fDecimalSamples = getelementptr inbounds i8, ptr %this, i64 88
  %fDecimalSamples3 = getelementptr inbounds i8, ptr %other, i64 88
  tail call void @llvm.memset.p0.i64(ptr noundef nonnull align 8 dereferenceable(16) %fNext, i8 0, i64 16, i1 false)
  invoke void @_ZN6icu_7513UnicodeStringC1ERKS0_(ptr noundef nonnull align 8 dereferenceable(64) %fDecimalSamples, ptr noundef nonnull align 8 dereferenceable(64) %fDecimalSamples3)
          to label %invoke.cont unwind label %lpad

invoke.cont:                                      ; preds = %entry
  %fIntegerSamples = getelementptr inbounds i8, ptr %this, i64 152
  %fIntegerSamples4 = getelementptr inbounds i8, ptr %other, i64 152
  invoke void @_ZN6icu_7513UnicodeStringC1ERKS0_(ptr noundef nonnull align 8 dereferenceable(64) %fIntegerSamples, ptr noundef nonnull align 8 dereferenceable(64) %fIntegerSamples4)
          to label %invoke.cont6 unwind label %lpad5

invoke.cont6:                                     ; preds = %invoke.cont
  %fDecimalSamplesUnbounded = getelementptr inbounds i8, ptr %this, i64 216
  %fDecimalSamplesUnbounded7 = getelementptr inbounds i8, ptr %other, i64 216
  %0 = load i8, ptr %fDecimalSamplesUnbounded7, align 8
  store i8 %0, ptr %fDecimalSamplesUnbounded, align 8
  %fIntegerSamplesUnbounded = getelementptr inbounds i8, ptr %this, i64 217
  %fIntegerSamplesUnbounded8 = getelementptr inbounds i8, ptr %other, i64 217
  %1 = load i8, ptr %fIntegerSamplesUnbounded8, align 1
  store i8 %1, ptr %fIntegerSamplesUnbounded, align 1
  %fInternalStatus = getelementptr inbounds i8, ptr %this, i64 220
  %fInternalStatus9 = getelementptr inbounds i8, ptr %other, i64 220
  %2 = load i32, ptr %fInternalStatus9, align 4
  store i32 %2, ptr %fInternalStatus, align 4
  %cmp.i = icmp slt i32 %2, 1
  br i1 %cmp.i, label %if.end, label %if.end68

lpad:                                             ; preds = %entry
  %3 = landingpad { ptr, i32 }
          cleanup
  br label %ehcleanup70

lpad5:                                            ; preds = %invoke.cont
  %4 = landingpad { ptr, i32 }
          cleanup
  br label %ehcleanup69

if.end:                                           ; preds = %invoke.cont6
  %ruleHeader13 = getelementptr inbounds i8, ptr %other, i64 80
  %5 = load ptr, ptr %ruleHeader13, align 8
  %cmp.not = icmp eq ptr %5, null
  br i1 %cmp.not, label %if.end35, label %if.then14

if.then14:                                        ; preds = %if.end
  %call15 = tail call noundef ptr @_ZN6icu_757UMemorynwEm(i64 noundef 32) #25
  %new.isnull = icmp eq ptr %call15, null
  br i1 %new.isnull, label %if.then22, label %new.notnull

new.notnull:                                      ; preds = %if.then14
  %6 = load ptr, ptr %ruleHeader13, align 8
  invoke void @_ZN6icu_7512OrConstraintC1ERKS0_(ptr noundef nonnull align 8 dereferenceable(28) %call15, ptr noundef nonnull align 8 dereferenceable(28) %6)
          to label %if.else unwind label %lpad17

if.then22:                                        ; preds = %if.then14
  store ptr null, ptr %ruleHeader, align 8
  store i32 7, ptr %fInternalStatus, align 4
  br label %if.end35

lpad17:                                           ; preds = %new.notnull
  %7 = landingpad { ptr, i32 }
          cleanup
  br label %ehcleanup

if.else:                                          ; preds = %new.notnull
  store ptr %call15, ptr %ruleHeader, align 8
  %fInternalStatus25 = getelementptr inbounds i8, ptr %call15, i64 24
  %8 = load i32, ptr %fInternalStatus25, align 8
  %cmp.i14 = icmp slt i32 %8, 1
  br i1 %cmp.i14, label %if.end35, label %if.end68.sink.split

if.end35:                                         ; preds = %if.then22, %if.else, %if.end
  %fNext36 = getelementptr inbounds i8, ptr %other, i64 72
  %9 = load ptr, ptr %fNext36, align 8
  %cmp37.not = icmp eq ptr %9, null
  br i1 %cmp37.not, label %if.end68, label %if.then38

if.then38:                                        ; preds = %if.end35
  %call39 = tail call noundef ptr @_ZN6icu_757UMemorynwEm(i64 noundef 224) #25
  %new.isnull40 = icmp eq ptr %call39, null
  br i1 %new.isnull40, label %if.then54, label %new.notnull41

new.notnull41:                                    ; preds = %if.then38
  %10 = load ptr, ptr %fNext36, align 8
  invoke void @_ZN6icu_759RuleChainC1ERKS0_(ptr noundef nonnull align 8 dereferenceable(224) %call39, ptr noundef nonnull align 8 dereferenceable(224) %10)
          to label %if.else56 unwind label %lpad45

if.then54:                                        ; preds = %if.then38
  store ptr null, ptr %fNext, align 8
  br label %if.end68.sink.split

lpad45:                                           ; preds = %new.notnull41
  %11 = landingpad { ptr, i32 }
          cleanup
  br label %ehcleanup

if.else56:                                        ; preds = %new.notnull41
  store ptr %call39, ptr %fNext, align 8
  %fInternalStatus58 = getelementptr inbounds i8, ptr %call39, i64 220
  %12 = load i32, ptr %fInternalStatus58, align 4
  %cmp.i16 = icmp slt i32 %12, 1
  br i1 %cmp.i16, label %if.end68, label %if.end68.sink.split

if.end68.sink.split:                              ; preds = %if.else56, %if.else, %if.then54
  %.sink = phi i32 [ 7, %if.then54 ], [ %8, %if.else ], [ %12, %if.else56 ]
  store i32 %.sink, ptr %fInternalStatus, align 4
  br label %if.end68

if.end68:                                         ; preds = %if.end68.sink.split, %if.else56, %invoke.cont6, %if.end35
  ret void

ehcleanup:                                        ; preds = %lpad45, %lpad17
  %call39.sink = phi ptr [ %call39, %lpad45 ], [ %call15, %lpad17 ]
  %.pn = phi { ptr, i32 } [ %11, %lpad45 ], [ %7, %lpad17 ]
  tail call void @_ZN6icu_757UMemorydlEPv(ptr noundef nonnull %call39.sink) #25
  tail call void @_ZN6icu_7513UnicodeStringD1Ev(ptr noundef nonnull align 8 dereferenceable(64) %fIntegerSamples) #25
  br label %ehcleanup69

ehcleanup69:                                      ; preds = %ehcleanup, %lpad5
  %.pn.pn = phi { ptr, i32 } [ %.pn, %ehcleanup ], [ %4, %lpad5 ]
  tail call void @_ZN6icu_7513UnicodeStringD1Ev(ptr noundef nonnull align 8 dereferenceable(64) %fDecimalSamples) #25
  br label %ehcleanup70

ehcleanup70:                                      ; preds = %ehcleanup69, %lpad
  %.pn.pn.pn = phi { ptr, i32 } [ %.pn.pn, %ehcleanup69 ], [ %3, %lpad ]
  tail call void @_ZN6icu_7513UnicodeStringD1Ev(ptr noundef nonnull align 8 dereferenceable(64) %fKeyword) #25
  resume { ptr, i32 } %.pn.pn.pn
}